Certificate:
    Data:
        Version: 3 (0x2)
        Serial Number: 6 (0x6)
    Signature Algorithm: sha256WithRSAEncryption
        Issuer: C=CN, ST=HuBei, L=WuHan, O=DDZ, OU=DDZ CA, CN=www.ddz.com
        Validity
            Not Before: Aug 16 12:23:27 2018 GMT
            Not After : Aug 16 12:23:27 2019 GMT
        Subject: C=CN, ST=HuBei, O=DDZ, OU=DDZ APP1, CN=www.ddzapp.com
        Subject Public Key Info:
            Public Key Algorithm: rsaEncryption
                Public-Key: (1024 bit)
                Modulus:
                    00:c4:4f:44:cd:2b:6e:44:22:2a:78:3e:f7:f1:18:
                    d6:77:e6:d5:8c:64:11:db:73:c5:aa:b5:07:6a:f0:
                    af:57:f2:eb:e7:91:26:84:51:72:20:4c:95:c6:2c:
                    f3:eb:c2:21:96:3a:cc:6a:d5:2b:e0:74:6e:44:8c:
                    14:f1:ae:6c:c1:bf:97:9a:21:8e:4f:8e:fe:6b:10:
                    62:78:93:f0:c4:31:b2:3f:10:f7:5d:a9:57:69:87:
                    e0:3a:38:ec:ab:bc:4c:e6:ed:3f:e0:06:90:37:69:
                    7d:f1:b7:72:ec:79:6d:b8:5c:b7:0b:b5:ef:00:7f:
                    3f:fb:a2:dd:53:38:40:59:f7
                Exponent: 65537 (0x10001)
        X509v3 extensions:
            X509v3 Basic Constraints: 
                CA:FALSE
            Netscape Comment: 
                OpenSSL Generated Certificate
            X509v3 Subject Key Identifier: 
                75:F5:A1:48:C2:D9:E3:8C:5D:31:25:5C:2F:FF:2D:95:24:3F:49:A6
            X509v3 Authority Key Identifier: 
                DirName:/C=CN/ST=HuBei/L=WuHan/O=DDZ/OU=DDZ CA/CN=www.ddz.com
                serial:DE:0A:C5:E3:D8:8D:4B:AD

    Signature Algorithm: sha256WithRSAEncryption
         93:84:54:b4:b0:a3:5f:fa:09:04:89:eb:c7:15:ea:ca:b9:55:
         d2:f9:f5:7e:e3:54:44:c7:d8:17:d0:59:36:d9:ff:4e:20:ba:
         0b:e3:bc:f3:2c:17:52:34:a4:7a:3a:18:96:7f:28:95:23:70:
         c2:f1:96:8c:59:0d:64:85:e6:3e:ea:a5:3f:fe:46:44:61:44:
         7e:d4:36:d6:46:7b:64:f8:23:23:ef:d8:78:62:87:86:9b:9a:
         14:5c:70:d8:60:6a:a0:57:21:27:ec:9f:02:e4:2b:9b:d5:9f:
         01:58:e7:4e:f3:ef:ee:0b:44:61:fd:3a:77:b2:e7:50:45:16:
         0b:49:ca:41:07:79:b2:13:7c:49:17:84:a5:db:0f:a5:30:ab:
         fa:14:ad:48:24:e5:41:8c:26:2d:e8:94:98:c5:37:76:fa:49:
         4f:af:69:0f:56:5f:e4:71:18:97:29:3b:a1:5c:16:31:2a:4c:
         68:df:a6:b6:34:00:b1:2a:4e:f0:f5:d0:98:39:2e:f3:fe:60:
         15:2d:66:24:a4:5a:ce:ee:86:3c:2f:15:c1:dd:24:28:5c:f9:
         b2:66:67:ed:05:b0:99:56:f4:cf:81:d4:84:61:fb:1f:71:e9:
         b5:23:e0:70:a6:94:95:7e:5b:b5:24:54:99:8a:24:00:cf:8b:
         fa:bf:90:1b
-----BEGIN CERTIFICATE-----
MIIDijCCAnKgAwIBAgIBBjANBgkqhkiG9w0BAQsFADBiMQswCQYDVQQGEwJDTjEO
MAwGA1UECAwFSHVCZWkxDjAMBgNVBAcMBVd1SGFuMQwwCgYDVQQKDANERFoxDzAN
BgNVBAsMBkREWiBDQTEUMBIGA1UEAwwLd3d3LmRkei5jb20wHhcNMTgwODE2MTIy
MzI3WhcNMTkwODE2MTIyMzI3WjBXMQswCQYDVQQGEwJDTjEOMAwGA1UECAwFSHVC
ZWkxDDAKBgNVBAoMA0REWjERMA8GA1UECwwIRERaIEFQUDExFzAVBgNVBAMMDnd3
dy5kZHphcHAuY29tMIGfMA0GCSqGSIb3DQEBAQUAA4GNADCBiQKBgQDET0TNK25E
Iip4PvfxGNZ35tWMZBHbc8WqtQdq8K9X8uvnkSaEUXIgTJXGLPPrwiGWOsxq1Svg
dG5EjBTxrmzBv5eaIY5Pjv5rEGJ4k/DEMbI/EPddqVdph+A6OOyrvEzm7T/gBpA3
aX3xt3LseW24XLcLte8Afz/7ot1TOEBZ9wIDAQABo4HZMIHWMAkGA1UdEwQCMAAw
LAYJYIZIAYb4QgENBB8WHU9wZW5TU0wgR2VuZXJhdGVkIENlcnRpZmljYXRlMB0G
A1UdDgQWBBR19aFIwtnjjF0xJVwv/y2VJD9JpjB8BgNVHSMEdTBzoWakZDBiMQsw
CQYDVQQGEwJDTjEOMAwGA1UECAwFSHVCZWkxDjAMBgNVBAcMBVd1SGFuMQwwCgYD
VQQKDANERFoxDzANBgNVBAsMBkREWiBDQTEUMBIGA1UEAwwLd3d3LmRkei5jb22C
CQDeCsXj2I1LrTANBgkqhkiG9w0BAQsFAAOCAQEAk4RUtLCjX/oJBInrxxXqyrlV
0vn1fuNURMfYF9BZNtn/TiC6C+O88ywXUjSkejoYln8olSNwwvGWjFkNZIXmPuql
P/5GRGFEftQ21kZ7ZPgjI+/YeGKHhpuaFFxw2GBqoFchJ+yfAuQrm9WfAVjnTvPv
7gtEYf06d7LnUEUWC0nKQQd5shN8SReEpdsPpTCr+hStSCTlQYwmLeiUmMU3dvpJ
T69pD1Zf5HEYlyk7oVwWMSpMaN+mtjQAsSpO8PXQmDku8/5gFS1mJKRazu6GPC8V
wd0kKFz5smZn7QWwmVb0z4HUhGH7H3HptSPgcKaUlX5btSRUmYokAM+L+r+QGw==
-----END CERTIFICATE-----
